target datalayout = "e-m:e-p270:32:32-p271:32:32-p272:64:64-i64:64-i128:128-f80:128-n8:16:32:64-S128"
target triple = "x86_64-pc-linux-gnu"

%struct.asn1_string_st = type { i32, i32, ptr, i64 }

@.str.4 = private unnamed_addr constant [1 x i8] zeroinitializer, align 1
@.str.52 = private unnamed_addr constant [9 x i8] c" (Empty)\00", align 1
@.str.53 = private unnamed_addr constant [2 x i8] c"-\00", align 1
@.str.54 = private unnamed_addr constant [17 x i8] c" %s%ju (%s0x%jx)\00", align 1
@.str.55 = private unnamed_addr constant [12 x i8] c" (Negative)\00", align 1
@.str.56 = private unnamed_addr constant [7 x i8] c"\0A%*s%s\00", align 1
@.str.57 = private unnamed_addr constant [7 x i8] c"%02x%c\00", align 1
@.str.58 = private unnamed_addr constant [5 x i8] c"%02x\00", align 1

; Function Attrs: nounwind uwtable
define i32 @ossl_serial_number_print(ptr noundef %0, ptr noundef %1, i32 noundef %2) #0 {
  %4 = alloca i32, align 4
  %5 = alloca ptr, align 8
  %6 = alloca ptr, align 8
  %7 = alloca i32, align 4
  %8 = alloca i32, align 4
  %9 = alloca i32, align 4
  %10 = alloca i64, align 8
  %11 = alloca i64, align 8
  %12 = alloca ptr, align 8
  %13 = alloca i32, align 4
  store ptr %0, ptr %5, align 8, !tbaa !15
  store ptr %1, ptr %6, align 8, !tbaa !22
  store i32 %2, ptr %7, align 4, !tbaa !17
  call void @llvm.lifetime.start.p0(i64 4, ptr %8) #4
  call void @llvm.lifetime.start.p0(i64 4, ptr %9) #4
  call void @llvm.lifetime.start.p0(i64 8, ptr %10) #4
  call void @llvm.lifetime.start.p0(i64 8, ptr %11) #4
  call void @llvm.lifetime.start.p0(i64 8, ptr %12) #4
  %14 = load ptr, ptr %6, align 8, !tbaa !22
  %15 = getelementptr inbounds nuw %struct.asn1_string_st, ptr %14, i32 0, i32 0
  %16 = load i32, ptr %15, align 8, !tbaa !30
  %17 = icmp eq i32 %16, 0
  br i1 %17, label %18, label %24

18:                                               ; preds = %3
  %19 = load ptr, ptr %5, align 8, !tbaa !15
  %20 = call i32 @BIO_puts(ptr noundef %19, ptr noundef @.str.52)
  %21 = icmp sle i32 %20, 0
  br i1 %21, label %22, label %23

22:                                               ; preds = %18
  store i32 -1, ptr %4, align 4
  store i32 1, ptr %13, align 4
  br label %103

23:                                               ; preds = %18
  store i32 0, ptr %4, align 4
  store i32 1, ptr %13, align 4
  br label %103

24:                                               ; preds = %3
  %25 = call i32 @ERR_set_mark()
  %26 = load ptr, ptr %6, align 8, !tbaa !22
  %27 = call i32 @ASN1_INTEGER_get_int64(ptr noundef %10, ptr noundef %26)
  store i32 %27, ptr %9, align 4, !tbaa !17
  %28 = call i32 @ERR_pop_to_mark()
  %29 = load i32, ptr %9, align 4, !tbaa !17
  %30 = icmp ne i32 %29, 0
  br i1 %30, label %31, label %51

31:                                               ; preds = %24
  %32 = load ptr, ptr %6, align 8, !tbaa !22
  %33 = getelementptr inbounds nuw %struct.asn1_string_st, ptr %32, i32 0, i32 1
  %34 = load i32, ptr %33, align 4, !tbaa !33
  %35 = icmp eq i32 %34, 258
  br i1 %35, label %36, label %39

36:                                               ; preds = %31
  %37 = load i64, ptr %10, align 8, !tbaa !13
  %38 = sub i64 0, %37
  store i64 %38, ptr %11, align 8, !tbaa !13
  store ptr @.str.53, ptr %12, align 8, !tbaa !34
  br label %41

39:                                               ; preds = %31
  %40 = load i64, ptr %10, align 8, !tbaa !13
  store i64 %40, ptr %11, align 8, !tbaa !13
  store ptr @.str.4, ptr %12, align 8, !tbaa !34
  br label %41

41:                                               ; preds = %39, %36
  %42 = load ptr, ptr %5, align 8, !tbaa !15
  %43 = load ptr, ptr %12, align 8, !tbaa !34
  %44 = load i64, ptr %11, align 8, !tbaa !13
  %45 = load ptr, ptr %12, align 8, !tbaa !34
  %46 = load i64, ptr %11, align 8, !tbaa !13
  %47 = call i32 (ptr, ptr, ...) @BIO_printf(ptr noundef %42, ptr noundef @.str.54, ptr noundef %43, i64 noundef %44, ptr noundef %45, i64 noundef %46)
  %48 = icmp sle i32 %47, 0
  br i1 %48, label %49, label %50

49:                                               ; preds = %41
  store i32 -1, ptr %4, align 4
  store i32 1, ptr %13, align 4
  br label %103

50:                                               ; preds = %41
  br label %102

51:                                               ; preds = %24
  %52 = load ptr, ptr %6, align 8, !tbaa !22
  %53 = getelementptr inbounds nuw %struct.asn1_string_st, ptr %52, i32 0, i32 1
  %54 = load i32, ptr %53, align 4, !tbaa !33
  %55 = icmp eq i32 %54, 258
  %56 = select i1 %55, ptr @.str.55, ptr @.str.4
  store ptr %56, ptr %12, align 8, !tbaa !34
  %57 = load ptr, ptr %5, align 8, !tbaa !15
  %58 = load i32, ptr %7, align 4, !tbaa !17
  %59 = load ptr, ptr %12, align 8, !tbaa !34
  %60 = call i32 (ptr, ptr, ...) @BIO_printf(ptr noundef %57, ptr noundef @.str.56, i32 noundef %58, ptr noundef @.str.4, ptr noundef %59)
  %61 = icmp sle i32 %60, 0
  br i1 %61, label %62, label %63

62:                                               ; preds = %51
  store i32 -1, ptr %4, align 4
  store i32 1, ptr %13, align 4
  br label %103

63:                                               ; preds = %51
  store i32 0, ptr %8, align 4, !tbaa !17
  br label %64

64:                                               ; preds = %85, %63
  %65 = load i32, ptr %8, align 4, !tbaa !17
  %66 = load ptr, ptr %6, align 8, !tbaa !22
  %67 = getelementptr inbounds nuw %struct.asn1_string_st, ptr %66, i32 0, i32 0
  %68 = load i32, ptr %67, align 8, !tbaa !30
  %69 = sub nsw i32 %68, 1
  %70 = icmp slt i32 %65, %69
  br i1 %70, label %71, label %88

71:                                               ; preds = %64
  %72 = load ptr, ptr %5, align 8, !tbaa !15
  %73 = load ptr, ptr %6, align 8, !tbaa !22
  %74 = getelementptr inbounds nuw %struct.asn1_string_st, ptr %73, i32 0, i32 2
  %75 = load ptr, ptr %74, align 8, !tbaa !35
  %76 = load i32, ptr %8, align 4, !tbaa !17
  %77 = sext i32 %76 to i64
  %78 = getelementptr inbounds i8, ptr %75, i64 %77
  %79 = load i8, ptr %78, align 1, !tbaa !19
  %80 = zext i8 %79 to i32
  %81 = call i32 (ptr, ptr, ...) @BIO_printf(ptr noundef %72, ptr noundef @.str.57, i32 noundef %80, i32 noundef 58)
  %82 = icmp sle i32 %81, 0
  br i1 %82, label %83, label %84

83:                                               ; preds = %71
  store i32 -1, ptr %4, align 4
  store i32 1, ptr %13, align 4
  br label %103

84:                                               ; preds = %71
  br label %85

85:                                               ; preds = %84
  %86 = load i32, ptr %8, align 4, !tbaa !17
  %87 = add nsw i32 %86, 1
  store i32 %87, ptr %8, align 4, !tbaa !17
  br label %64, !llvm.loop !36

88:                                               ; preds = %64
  %89 = load ptr, ptr %5, align 8, !tbaa !15
  %90 = load ptr, ptr %6, align 8, !tbaa !22
  %91 = getelementptr inbounds nuw %struct.asn1_string_st, ptr %90, i32 0, i32 2
  %92 = load ptr, ptr %91, align 8, !tbaa !35
  %93 = load i32, ptr %8, align 4, !tbaa !17
  %94 = sext i32 %93 to i64
  %95 = getelementptr inbounds i8, ptr %92, i64 %94
  %96 = load i8, ptr %95, align 1, !tbaa !19
  %97 = zext i8 %96 to i32
  %98 = call i32 (ptr, ptr, ...) @BIO_printf(ptr noundef %89, ptr noundef @.str.58, i32 noundef %97)
  %99 = icmp sle i32 %98, 0
  br i1 %99, label %100, label %101

100:                                              ; preds = %88
  store i32 -1, ptr %4, align 4
  store i32 1, ptr %13, align 4
  br label %103

101:                                              ; preds = %88
  br label %102

102:                                              ; preds = %101, %50
  store i32 0, ptr %4, align 4
  store i32 1, ptr %13, align 4
  br label %103

103:                                              ; preds = %102, %100, %83, %62, %49, %23, %22
  call void @llvm.lifetime.end.p0(i64 8, ptr %12) #4
  call void @llvm.lifetime.end.p0(i64 8, ptr %11) #4
  call void @llvm.lifetime.end.p0(i64 8, ptr %10) #4
  call void @llvm.lifetime.end.p0(i64 4, ptr %9) #4
  call void @llvm.lifetime.end.p0(i64 4, ptr %8) #4
  %104 = load i32, ptr %4, align 4
  ret i32 %104
}