; Function Attrs: nounwind uwtable
define range(i32 -1, 1) i32 @ossl_serial_number_print(ptr noundef %0, ptr noundef %1, i32 noundef %2) local_unnamed_addr #0 {
  %4 = alloca i64, align 8
  call void @llvm.lifetime.start.p0(i64 8, ptr nonnull %4) #4
  %5 = load i32, ptr %1, align 8, !tbaa !12
  %6 = icmp eq i32 %5, 0
  br i1 %6, label %7, label %10

7:                                                ; preds = %3
  %8 = tail call i32 @BIO_puts(ptr noundef %0, ptr noundef nonnull @.str.52) #4
  %9 = icmp slt i32 %8, 1
  %. = sext i1 %9 to i32
  br label %.loopexit

10:                                               ; preds = %3
  %11 = tail call i32 @ERR_set_mark() #4
  %12 = call i32 @ASN1_INTEGER_get_int64(ptr noundef nonnull %4, ptr noundef nonnull %1) #4
  %13 = call i32 @ERR_pop_to_mark() #4
  %.not = icmp eq i32 %12, 0
  %14 = getelementptr inbounds nuw i8, ptr %1, i64 4
  %15 = load i32, ptr %14, align 4, !tbaa !17
  %16 = icmp eq i32 %15, 258
  br i1 %.not, label %22, label %17

17:                                               ; preds = %10
  %18 = load i64, ptr %4, align 8
  %19 = sub i64 0, %18
  %.023 = select i1 %16, i64 %19, i64 %18
  %.0 = select i1 %16, ptr @.str.53, ptr @.str.4
  %20 = call i32 (ptr, ptr, ...) @BIO_printf(ptr noundef %0, ptr noundef nonnull @.str.54, ptr noundef nonnull %.0, i64 noundef %.023, ptr noundef nonnull %.0, i64 noundef %.023) #4
  %21 = icmp slt i32 %20, 1
  br i1 %21, label %.loopexit, label %49

22:                                               ; preds = %10
  %23 = select i1 %16, ptr @.str.55, ptr @.str.4
  %24 = call i32 (ptr, ptr, ...) @BIO_printf(ptr noundef %0, ptr noundef nonnull @.str.56, i32 noundef %2, ptr noundef nonnull @.str.4, ptr noundef nonnull %23) #4
  %25 = icmp slt i32 %24, 1
  br i1 %25, label %.loopexit, label %.preheader

.preheader:                                       ; preds = %22
  %26 = load i32, ptr %1, align 8, !tbaa !12
  %27 = icmp sgt i32 %26, 1
  br i1 %27, label %.lr.ph, label %._crit_edge

.lr.ph:                                           ; preds = %.preheader
  %28 = getelementptr inbounds nuw i8, ptr %1, i64 8
  br label %29

29:                                               ; preds = %.lr.ph, %36
  %indvars.iv = phi i64 [ 0, %.lr.ph ], [ %indvars.iv.next, %36 ]
  %30 = load ptr, ptr %28, align 8, !tbaa !18
  %31 = getelementptr inbounds nuw i8, ptr %30, i64 %indvars.iv
  %32 = load i8, ptr %31, align 1, !tbaa !19
  %33 = zext i8 %32 to i32
  %34 = call i32 (ptr, ptr, ...) @BIO_printf(ptr noundef %0, ptr noundef nonnull @.str.57, i32 noundef %33, i32 noundef 58) #4
  %35 = icmp slt i32 %34, 1
  br i1 %35, label %.loopexit, label %36

36:                                               ; preds = %29
  %indvars.iv.next = add nuw nsw i64 %indvars.iv, 1
  %37 = load i32, ptr %1, align 8, !tbaa !12
  %38 = add nsw i32 %37, -1
  %39 = sext i32 %38 to i64
  %40 = icmp slt i64 %indvars.iv.next, %39
  br i1 %40, label %29, label %._crit_edge.loopexit, !llvm.loop !20

._crit_edge.loopexit:                             ; preds = %36
  %41 = and i64 %indvars.iv.next, 4294967295
  br label %._crit_edge

._crit_edge:                                      ; preds = %._crit_edge.loopexit, %.preheader
  %.025.lcssa = phi i64 [ 0, %.preheader ], [ %41, %._crit_edge.loopexit ]
  %42 = getelementptr inbounds nuw i8, ptr %1, i64 8
  %43 = load ptr, ptr %42, align 8, !tbaa !18
  %44 = getelementptr inbounds nuw i8, ptr %43, i64 %.025.lcssa
  %45 = load i8, ptr %44, align 1, !tbaa !19
  %46 = zext i8 %45 to i32
  %47 = call i32 (ptr, ptr, ...) @BIO_printf(ptr noundef %0, ptr noundef nonnull @.str.58, i32 noundef %46) #4
  %48 = icmp slt i32 %47, 1
  br i1 %48, label %.loopexit, label %49

49:                                               ; preds = %._crit_edge, %17
  br label %.loopexit

.loopexit:                                        ; preds = %29, %._crit_edge, %22, %17, %7, %49
  %.024 = phi i32 [ 0, %49 ], [ %., %7 ], [ -1, %17 ], [ -1, %22 ], [ -1, %._crit_edge ], [ -1, %29 ]
  call void @llvm.lifetime.end.p0(i64 8, ptr nonnull %4) #4
  ret i32 %.024
}